-----BEGIN RSA PRIVATE KEY-----
Proc-Type: 4,ENCRYPTED
DEK-Info: DES-EDE3-CBC,B4199FC4A3C88ECD

pwEwjgma6LtqkUJdGnzaYi+uGLhCk/wU63wXQY9Qumja2/M1wtmuy1/dcZKQpqJC
T/LUAXZ73it67zaMreMJpS+3mKPR/+6/USL0FiYp6p+rptjFAh7xYYBDEWNfDa3l
bIoyP5jNWMHASrvnPbJmG3i7Adhu8R9I6PqftboBuP2lx7A18hv5Rocb7tnHyRfT
SRd2MLMo2wSdOyzF3mrqPA9uS4CGMd9+Ov6Odm1WOCIWxWtY6gxhN9l8Fz1gKrg8
bvieMBVQPz4gcHx8zm5u+Ni5p/8sfJBq4PCLCcTqlpCEVtL8WVebiV9yX0wsP5xf
E7DjqSmrW2F1Wvwy1Sysvk2vLRssz+3dRNmtYnppNEcKvdk4khYro59aUO7IpOdj
mzi19NYkb87pYDVHeXsMbfiw3uH2vLIjb2vuM7aPUXhIvxraWkFtuy95unqOKMFs
kB3ae5oD7GWs5D0O7KkQUgWMxvMC6NMvOYJc1kd3WCRTSVJYt3ApOpNPIWzjMLwa
NAYVQdIFg44+cHyiflaD9VSPZLpCzuwjNWln3sEGRLVjhgKpg1k5MgmpkoGheJew
FH9h+Lzwh+/Iqx9drt1QxklXVYUV3A2Ved7/QSFjCpETM5IMsdlffgi1suFDTugz
rnEphMXzVpFPhGRhS/ruJmT7t93MMiscYeTe7MxRUJDb/DRgmUACmhyEE/b1MIaZ
UeDSS0buYyoWuoHZIlOyTmp6nf9bnuXSBWpASo+8wcztWq9a/o/UI4gmdm2lltn6
J7F2GumaYhy63mjPiZF9L043lIabcdbDvNZxCXJhNcLwfrWKAFn15g==
-----END RSA PRIVATE KEY-----
Certificate:
    Data:
        Version: 3 (0x2)
        Serial Number: 4096 (0x1000)
    Signature Algorithm: sha1WithRSAEncryption
        Issuer: C=US, ST=Pennsylvania, L=Erie, O=MPopovich LLC., OU=Engineering, CN=Matt Popovich/emailAddress=thegreatest@psu.edu
        Validity
            Not Before: Feb  4 03:13:30 2016 GMT
            Not After : Feb  3 03:13:30 2017 GMT
        Subject: C=US, ST=Pennsylvania, O=MPopovich LLC., OU=Software, CN=John Cena/emailAddress=admin@PKILabServer.com
        Subject Public Key Info:
            Public Key Algorithm: rsaEncryption
                Public-Key: (1024 bit)
                Modulus:
                    00:a6:91:6e:26:01:c2:83:b5:be:d1:1c:dc:b3:ff:
                    6a:9b:b6:8e:63:42:57:fe:84:10:46:c4:03:70:75:
                    10:bc:de:b8:7c:07:f2:f0:4d:2d:e7:2c:c8:c8:c4:
                    36:b2:c5:f7:98:6f:f2:e4:06:44:d7:45:67:3d:39:
                    33:ce:16:9e:e8:43:c6:e5:3e:18:eb:3d:9f:0d:98:
                    6b:58:4e:00:da:1d:ce:6f:7f:0b:23:37:56:08:7a:
                    ae:ad:71:54:5c:e9:9c:63:0d:d5:3a:23:64:57:52:
                    19:ad:2b:36:87:86:89:38:2b:52:7c:3f:21:2f:c1:
                    9a:28:24:39:8f:02:95:d0:ad
                Exponent: 65537 (0x10001)
        X509v3 extensions:
            X509v3 Basic Constraints: 
                CA:FALSE
            Netscape Comment: 
                OpenSSL Generated Certificate
            X509v3 Subject Key Identifier: 
                3E:53:55:EA:9E:C6:72:C3:15:3E:B5:00:EB:27:19:C3:05:1E:A6:65
            X509v3 Authority Key Identifier: 
                keyid:B2:CD:A5:75:83:AB:5E:75:26:38:CF:18:E9:78:B1:46:06:C1:96:D4

    Signature Algorithm: sha1WithRSAEncryption
         bf:10:b1:aa:20:47:03:04:21:53:7f:a7:f1:d9:89:ef:bf:8d:
         13:14:62:97:02:f1:b8:5e:d2:a0:6a:6a:84:8a:b5:ac:41:62:
         6b:bc:19:12:84:4b:13:d1:09:f8:75:60:4b:36:fb:c6:07:89:
         60:2a:a0:62:3a:e4:05:e1:3a:23:db:0a:39:d7:b5:5d:a8:b6:
         e2:98:43:49:c2:bc:f3:ed:70:be:2b:2b:51:ac:d1:71:d7:ba:
         5b:b4:7d:c0:a8:e0:c0:fa:ea:57:73:ca:4b:1e:00:64:7d:c9:
         61:a8:ec:b8:40:4a:5c:37:09:21:84:9b:2a:41:2e:ec:f5:99:
         b1:95:6c:0c:1e:ac:8b:01:31:35:4c:f2:f1:2a:cf:c7:a3:41:
         8a:6d:6e:03:15:f6:34:34:73:75:2c:be:84:dd:e2:08:c5:ea:
         4e:81:96:f3:a6:73:1e:4f:c6:1c:99:ad:04:cd:26:47:78:57:
         0e:42:a4:c8:42:eb:ae:6a:ab:f8:48:3a:df:ce:eb:62:89:58:
         cf:72:52:93:d3:8e:58:a8:6c:70:e2:1e:ad:cf:27:b7:e0:cb:
         52:04:bf:e7:f8:41:7e:af:7a:91:b8:47:f0:9f:b9:b2:7b:8b:
         06:5e:d8:61:c8:16:2f:1e:7b:f7:ed:03:3d:d3:be:a4:c8:c8:
         c9:b3:8c:df
-----BEGIN CERTIFICATE-----
MIIDnjCCAoagAwIBAgICEAAwDQYJKoZIhvcNAQEFBQAwgZ4xCzAJBgNVBAYTAlVT
MRUwEwYDVQQIDAxQZW5uc3lsdmFuaWExDTALBgNVBAcMBEVyaWUxFzAVBgNVBAoM
Dk1Qb3BvdmljaCBMTEMuMRQwEgYDVQQLDAtFbmdpbmVlcmluZzEWMBQGA1UEAwwN
TWF0dCBQb3BvdmljaDEiMCAGCSqGSIb3DQEJARYTdGhlZ3JlYXRlc3RAcHN1LmVk
dTAeFw0xNjAyMDQwMzEzMzBaFw0xNzAyMDMwMzEzMzBaMIGLMQswCQYDVQQGEwJV
UzEVMBMGA1UECAwMUGVubnN5bHZhbmlhMRcwFQYDVQQKDA5NUG9wb3ZpY2ggTExD
LjERMA8GA1UECwwIU29mdHdhcmUxEjAQBgNVBAMMCUpvaG4gQ2VuYTElMCMGCSqG
SIb3DQEJARYWYWRtaW5AUEtJTGFiU2VydmVyLmNvbTCBnzANBgkqhkiG9w0BAQEF
AAOBjQAwgYkCgYEAppFuJgHCg7W+0Rzcs/9qm7aOY0JX/oQQRsQDcHUQvN64fAfy
8E0t5yzIyMQ2ssX3mG/y5AZE10VnPTkzzhae6EPG5T4Y6z2fDZhrWE4A2h3Ob38L
IzdWCHqurXFUXOmcYw3VOiNkV1IZrSs2h4aJOCtSfD8hL8GaKCQ5jwKV0K0CAwEA
AaN7MHkwCQYDVR0TBAIwADAsBglghkgBhvhCAQ0EHxYdT3BlblNTTCBHZW5lcmF0
ZWQgQ2VydGlmaWNhdGUwHQYDVR0OBBYEFD5TVeqexnLDFT61AOsnGcMFHqZlMB8G
A1UdIwQYMBaAFLLNpXWDq151JjjPGOl4sUYGwZbUMA0GCSqGSIb3DQEBBQUAA4IB
AQC/ELGqIEcDBCFTf6fx2Ynvv40TFGKXAvG4XtKgamqEirWsQWJrvBkShEsT0Qn4
dWBLNvvGB4lgKqBiOuQF4Toj2wo517VdqLbimENJwrzz7XC+KytRrNFx17pbtH3A
qODA+upXc8pLHgBkfclhqOy4QEpcNwkhhJsqQS7s9ZmxlWwMHqyLATE1TPLxKs/H
o0GKbW4DFfY0NHN1LL6E3eIIxepOgZbzpnMeT8Ycma0EzSZHeFcOQqTIQuuuaqv4
SDrfzutiiVjPclKT045YqGxw4h6tzye34MtSBL/n+EF+r3qRuEfwn7mye4sGXthh
yBYvHnv37QM9076kyMjJs4zf
-----END CERTIFICATE-----
